; Function Attrs: mustprogress uwtable
define noundef ptr @_ZNK6icu_7522TransliteratorRegistry18findInDynamicStoreERKNS_18TransliteratorSpecES3_RKNS_13UnicodeStringE(ptr nocapture noundef nonnull readonly align 8 dereferenceable(312) %this, ptr noundef nonnull align 8 dereferenceable(280) %src, ptr noundef nonnull align 8 dereferenceable(280) %trg, ptr noundef nonnull align 8 dereferenceable(64) %variant) local_unnamed_addr #1 align 2 personality ptr @__gxx_personality_v0 {
entry:
  %ID = alloca %"class.icu_75::UnicodeString", align 8
  store ptr getelementptr inbounds ({ [13 x ptr] }, ptr @_ZTVN6icu_7513UnicodeStringE, i64 0, i32 0, i64 2), ptr %ID, align 8
  %fUnion2.i = getelementptr inbounds i8, ptr %ID, i64 8
  store i16 2, ptr %fUnion2.i, align 8
  %spec.i.i = getelementptr inbounds i8, ptr %src, i64 72
  %spec.i.i1 = getelementptr inbounds i8, ptr %trg, i64 72
  invoke void @_ZN6icu_7522TransliteratorIDParser7STVtoIDERKNS_13UnicodeStringES3_S3_RS1_(ptr noundef nonnull align 8 dereferenceable(64) %spec.i.i, ptr noundef nonnull align 8 dereferenceable(64) %spec.i.i1, ptr noundef nonnull align 8 dereferenceable(64) %variant, ptr noundef nonnull align 8 dereferenceable(64) %ID)
          to label %invoke.cont4 unwind label %lpad

invoke.cont4:                                     ; preds = %entry
  %registry = getelementptr inbounds i8, ptr %this, i64 8
  %0 = load ptr, ptr %registry, align 8
  %call.i2 = invoke noundef ptr @uhash_get_75(ptr noundef %0, ptr noundef nonnull %ID)
          to label %invoke.cont5 unwind label %lpad

invoke.cont5:                                     ; preds = %invoke.cont4
  call void @_ZN6icu_7513UnicodeStringD1Ev(ptr noundef nonnull align 8 dereferenceable(64) %ID) #15
  ret ptr %call.i2

lpad:                                             ; preds = %invoke.cont4, %entry
  %1 = landingpad { ptr, i32 }
          cleanup
  call void @_ZN6icu_7513UnicodeStringD1Ev(ptr noundef nonnull align 8 dereferenceable(64) %ID) #15
  resume { ptr, i32 } %1
}